target datalayout = "e-m:e-p270:32:32-p271:32:32-p272:64:64-i64:64-i128:128-f80:128-n8:16:32:64-S128"
target triple = "x86_64-pc-linux-gnu"

%"class.cmsys::SystemInformationImplementation" = type <{ i32, %"struct.cmsys::SystemInformationImplementation::CPUFeatures", %"struct.cmsys::SystemInformationImplementation::ID", float, i32, i32, [4 x i8], %"class.std::__cxx11::basic_string", i64, i64, i64, i64, i64, %"class.std::__cxx11::basic_string", %"class.std::__cxx11::basic_string", %"class.std::__cxx11::basic_string", %"class.std::__cxx11::basic_string", %"class.std::__cxx11::basic_string", i8, [7 x i8] }>
%"struct.cmsys::SystemInformationImplementation::CPUFeatures" = type { i8, i8, i8, i8, i8, i8, i8, i8, i8, i8, i8, i8, i8, i32, i32, i32, i32, %"struct.cmsys::SystemInformationImplementation::CPUExtendedFeatures" }
%"struct.cmsys::SystemInformationImplementation::CPUExtendedFeatures" = type { i8, i8, i8, i8, i8, i32, i32, %"struct.cmsys::SystemInformationImplementation::CPUPowerManagement" }
%"struct.cmsys::SystemInformationImplementation::CPUPowerManagement" = type { i8, i8, i8 }
%"struct.cmsys::SystemInformationImplementation::ID" = type { i32, i32, i32, i32, i32, i32, %"class.std::__cxx11::basic_string", %"class.std::__cxx11::basic_string", %"class.std::__cxx11::basic_string", %"class.std::__cxx11::basic_string" }
%"class.std::__cxx11::basic_string" = type { %"struct.std::__cxx11::basic_string<char>::_Alloc_hider", i64, %union.anon }
%"struct.std::__cxx11::basic_string<char>::_Alloc_hider" = type { ptr }
%union.anon = type { i64, [8 x i8] }

; Function Attrs: mustprogress nounwind uwtable
define dso_local noundef zeroext i1 @_ZN5cmsys31SystemInformationImplementation20QueryMemoryBySysconfEv(ptr noundef nonnull align 8 dereferenceable(457) %0) #7 align 2 {
  %2 = alloca i1, align 1
  %3 = alloca ptr, align 8
  %4 = alloca i64, align 8
  %5 = alloca i64, align 8
  %6 = alloca i32, align 4
  %7 = alloca i64, align 8
  store ptr %0, ptr %3, align 8, !tbaa !12
  %8 = load ptr, ptr %3, align 8
  call void @llvm.lifetime.start.p0(i64 8, ptr %4) #3
  %9 = call i64 @sysconf(i32 noundef 85) #3
  store i64 %9, ptr %4, align 8, !tbaa !35
  call void @llvm.lifetime.start.p0(i64 8, ptr %5) #3
  %10 = call i64 @sysconf(i32 noundef 30) #3
  store i64 %10, ptr %5, align 8, !tbaa !35
  %11 = load i64, ptr %4, align 8, !tbaa !35
  %12 = icmp slt i64 %11, 0
  br i1 %12, label %16, label %13

13:                                               ; preds = %1
  %14 = load i64, ptr %5, align 8, !tbaa !35
  %15 = icmp slt i64 %14, 0
  br i1 %15, label %16, label %17

16:                                               ; preds = %13, %1
  store i1 false, ptr %2, align 1
  store i32 1, ptr %6, align 4
  br label %38

17:                                               ; preds = %13
  call void @llvm.lifetime.start.p0(i64 8, ptr %7) #3
  %18 = load i64, ptr %5, align 8, !tbaa !35
  %19 = sdiv i64 1048576, %18
  store i64 %19, ptr %7, align 8, !tbaa !35
  %20 = load i64, ptr %4, align 8, !tbaa !35
  %21 = getelementptr inbounds nuw %"class.cmsys::SystemInformationImplementation", ptr %8, i32 0, i32 10
  store i64 %20, ptr %21, align 8, !tbaa !90
  %22 = load i64, ptr %7, align 8, !tbaa !35
  %23 = getelementptr inbounds nuw %"class.cmsys::SystemInformationImplementation", ptr %8, i32 0, i32 10
  %24 = load i64, ptr %23, align 8, !tbaa !90
  %25 = udiv i64 %24, %22
  store i64 %25, ptr %23, align 8, !tbaa !90
  %26 = call i64 @sysconf(i32 noundef 86) #3
  store i64 %26, ptr %4, align 8, !tbaa !35
  %27 = load i64, ptr %4, align 8, !tbaa !35
  %28 = icmp slt i64 %27, 0
  br i1 %28, label %29, label %30

29:                                               ; preds = %17
  store i1 false, ptr %2, align 1
  store i32 1, ptr %6, align 4
  br label %37

30:                                               ; preds = %17
  %31 = load i64, ptr %4, align 8, !tbaa !35
  %32 = getelementptr inbounds nuw %"class.cmsys::SystemInformationImplementation", ptr %8, i32 0, i32 11
  store i64 %31, ptr %32, align 8, !tbaa !91
  %33 = load i64, ptr %7, align 8, !tbaa !35
  %34 = getelementptr inbounds nuw %"class.cmsys::SystemInformationImplementation", ptr %8, i32 0, i32 11
  %35 = load i64, ptr %34, align 8, !tbaa !91
  %36 = udiv i64 %35, %33
  store i64 %36, ptr %34, align 8, !tbaa !91
  store i1 true, ptr %2, align 1
  store i32 1, ptr %6, align 4
  br label %37

37:                                               ; preds = %30, %29
  call void @llvm.lifetime.end.p0(i64 8, ptr %7) #3
  br label %38

38:                                               ; preds = %37, %16
  call void @llvm.lifetime.end.p0(i64 8, ptr %5) #3
  call void @llvm.lifetime.end.p0(i64 8, ptr %4) #3
  %39 = load i1, ptr %2, align 1
  ret i1 %39
}

; Function Attrs: mustprogress nounwind uwtable
define dso_local noundef zeroext i1 @_ZN5cmsys31SystemInformationImplementation11QueryMemoryEv(ptr noundef nonnull align 8 dereferenceable(457) %0) #7 align 2 {
  %2 = alloca ptr, align 8
  store ptr %0, ptr %2, align 8, !tbaa !12
  %3 = load ptr, ptr %2, align 8
  %4 = call noundef zeroext i1 @_ZN5cmsys31SystemInformationImplementation20QueryMemoryBySysconfEv(ptr noundef nonnull align 8 dereferenceable(457) %3)
  ret i1 %4
}