; Function Attrs: mustprogress nounwind uwtable
define dso_local noundef zeroext i1 @_ZN5cmsys31SystemInformationImplementation11QueryMemoryEv(ptr noundef nonnull writeonly align 8 captures(none) dereferenceable(457) %0) local_unnamed_addr #6 align 2 {
  %2 = tail call i64 @sysconf(i32 noundef 85) #34
  %3 = tail call i64 @sysconf(i32 noundef 30) #34
  %4 = icmp slt i64 %2, 0
  %5 = icmp slt i64 %3, 0
  %or.cond.i = select i1 %4, i1 true, i1 %5
  br i1 %or.cond.i, label %_ZN5cmsys31SystemInformationImplementation20QueryMemoryBySysconfEv.exit, label %6

6:                                                ; preds = %1
  %7 = udiv i64 1048576, %3
  %8 = getelementptr inbounds nuw i8, ptr %0, i64 272
  %9 = udiv i64 %2, %7
  store i64 %9, ptr %8, align 8, !tbaa !131
  %10 = tail call i64 @sysconf(i32 noundef 86) #34
  %11 = icmp sgt i64 %10, -1
  br i1 %11, label %12, label %_ZN5cmsys31SystemInformationImplementation20QueryMemoryBySysconfEv.exit

12:                                               ; preds = %6
  %13 = getelementptr inbounds nuw i8, ptr %0, i64 280
  %14 = udiv i64 %10, %7
  store i64 %14, ptr %13, align 8, !tbaa !132
  br label %_ZN5cmsys31SystemInformationImplementation20QueryMemoryBySysconfEv.exit

_ZN5cmsys31SystemInformationImplementation20QueryMemoryBySysconfEv.exit: ; preds = %1, %6, %12
  %.0.i = phi i1 [ false, %1 ], [ false, %6 ], [ true, %12 ]
  ret i1 %.0.i
}